Archive member included to satisfy reference by file (symbol)

/usr/share/gcc-arm-none-eabi-10.3-2021.10/bin/../lib/gcc/arm-none-eabi/10.3.1/thumb/v6-m/nofp/libgcc.a(_thumb1_case_sqi.o)
                              build/CawthronKinetics/msc.o (__gnu_thumb1_case_sqi)
/usr/share/gcc-arm-none-eabi-10.3-2021.10/bin/../lib/gcc/arm-none-eabi/10.3.1/thumb/v6-m/nofp/libgcc.a(_thumb1_case_uqi.o)
                              build/CawthronKinetics/hid.o (__gnu_thumb1_case_uqi)
/usr/share/gcc-arm-none-eabi-10.3-2021.10/bin/../lib/gcc/arm-none-eabi/10.3.1/../../../../arm-none-eabi/lib/thumb/v6-m/nofp/libg_nano.a(lib_a-memcpy-stub.o)
                              build/CawthronKinetics/startup_samd21.o (memcpy)
/usr/share/gcc-arm-none-eabi-10.3-2021.10/bin/../lib/gcc/arm-none-eabi/10.3.1/../../../../arm-none-eabi/lib/thumb/v6-m/nofp/libg_nano.a(lib_a-memset.o)
                              build/CawthronKinetics/startup_samd21.o (memset)
/usr/share/gcc-arm-none-eabi-10.3-2021.10/bin/../lib/gcc/arm-none-eabi/10.3.1/../../../../arm-none-eabi/lib/thumb/v6-m/nofp/libg_nano.a(lib_a-strlen.o)
                              build/CawthronKinetics/cdc_enumerate.o (strlen)

Discarded input sections

 .text          0x0000000000000000        0x0 build/CawthronKinetics/flash_samd21.o
 .data          0x0000000000000000        0x0 build/CawthronKinetics/flash_samd21.o
 .bss           0x0000000000000000        0x0 build/CawthronKinetics/flash_samd21.o
 .text.flash_write
                0x0000000000000000       0x9c build/CawthronKinetics/flash_samd21.o
 .text          0x0000000000000000        0x0 build/CawthronKinetics/init_samd21.o
 .data          0x0000000000000000        0x0 build/CawthronKinetics/init_samd21.o
 .bss           0x0000000000000000        0x0 build/CawthronKinetics/init_samd21.o
 .data.g_interrupt_enabled
                0x0000000000000000        0x1 build/CawthronKinetics/init_samd21.o
 .text          0x0000000000000000        0x0 build/CawthronKinetics/startup_samd21.o
 .data          0x0000000000000000        0x0 build/CawthronKinetics/startup_samd21.o
 .bss           0x0000000000000000        0x0 build/CawthronKinetics/startup_samd21.o
 .text          0x0000000000000000        0x0 build/CawthronKinetics/usart_sam_ba.o
 .data          0x0000000000000000        0x0 build/CawthronKinetics/usart_sam_ba.o
 .bss           0x0000000000000000        0x0 build/CawthronKinetics/usart_sam_ba.o
 .text.usart_open
                0x0000000000000000       0xbc build/CawthronKinetics/usart_sam_ba.o
 .text.usart_close
                0x0000000000000000       0x10 build/CawthronKinetics/usart_sam_ba.o
 .text.usart_putc
                0x0000000000000000       0x14 build/CawthronKinetics/usart_sam_ba.o
 .text.usart_is_rx_ready
                0x0000000000000000       0x10 build/CawthronKinetics/usart_sam_ba.o
 .text.usart_getc
                0x0000000000000000       0x18 build/CawthronKinetics/usart_sam_ba.o
 .text.usart_sharp_received
                0x0000000000000000       0x1a build/CawthronKinetics/usart_sam_ba.o
 .text.usart_readc
                0x0000000000000000       0x20 build/CawthronKinetics/usart_sam_ba.o
 .text.usart_putdata
                0x0000000000000000       0x1a build/CawthronKinetics/usart_sam_ba.o
 .text.usart_getdata
                0x0000000000000000        0xe build/CawthronKinetics/usart_sam_ba.o
 .text.getbytes
                0x0000000000000000       0x60 build/CawthronKinetics/usart_sam_ba.o
 .text.getPacket
                0x0000000000000000       0x70 build/CawthronKinetics/usart_sam_ba.o
 .text.usart_putdata_xmd
                0x0000000000000000      0x10c build/CawthronKinetics/usart_sam_ba.o
 .text.usart_getdata_xmd
                0x0000000000000000       0xa4 build/CawthronKinetics/usart_sam_ba.o
 .bss.b_sharp_received
                0x0000000000000000        0x1 build/CawthronKinetics/usart_sam_ba.o
 .bss.buffer_rx_usart
                0x0000000000000000       0x80 build/CawthronKinetics/usart_sam_ba.o
 .bss.buffer_tx_usart
                0x0000000000000000       0x80 build/CawthronKinetics/usart_sam_ba.o
 .bss.error_timeout
                0x0000000000000000        0x1 build/CawthronKinetics/usart_sam_ba.o
 .bss.idx_rx_read
                0x0000000000000000        0x1 build/CawthronKinetics/usart_sam_ba.o
 .bss.idx_rx_write
                0x0000000000000000        0x1 build/CawthronKinetics/usart_sam_ba.o
 .bss.idx_tx_read
                0x0000000000000000        0x1 build/CawthronKinetics/usart_sam_ba.o
 .bss.idx_tx_write
                0x0000000000000000        0x1 build/CawthronKinetics/usart_sam_ba.o
 .bss.mode_of_transfer
                0x0000000000000000        0x1 build/CawthronKinetics/usart_sam_ba.o
 .bss.size_of_data
                0x0000000000000000        0x2 build/CawthronKinetics/usart_sam_ba.o
 .text          0x0000000000000000        0x0 build/CawthronKinetics/utils.o
 .data          0x0000000000000000        0x0 build/CawthronKinetics/utils.o
 .bss           0x0000000000000000        0x0 build/CawthronKinetics/utils.o
 .text.panic    0x0000000000000000        0x2 build/CawthronKinetics/utils.o
 .text          0x0000000000000000        0x0 build/CawthronKinetics/cdc_enumerate.o
 .data          0x0000000000000000        0x0 build/CawthronKinetics/cdc_enumerate.o
 .bss           0x0000000000000000        0x0 build/CawthronKinetics/cdc_enumerate.o
 .text.reset_ep
                0x0000000000000000       0x24 build/CawthronKinetics/cdc_enumerate.o
 .text.stall_ep
                0x0000000000000000       0x20 build/CawthronKinetics/cdc_enumerate.o
 .text.cdc_is_rx_ready
                0x0000000000000000       0x20 build/CawthronKinetics/cdc_enumerate.o
 .text          0x0000000000000000        0x0 build/CawthronKinetics/fat.o
 .data          0x0000000000000000        0x0 build/CawthronKinetics/fat.o
 .bss           0x0000000000000000        0x0 build/CawthronKinetics/fat.o
 .text          0x0000000000000000        0x0 build/CawthronKinetics/main.o
 .data          0x0000000000000000        0x0 build/CawthronKinetics/main.o
 .bss           0x0000000000000000        0x0 build/CawthronKinetics/main.o
 .text          0x0000000000000000        0x0 build/CawthronKinetics/msc.o
 .data          0x0000000000000000        0x0 build/CawthronKinetics/msc.o
 .bss           0x0000000000000000        0x0 build/CawthronKinetics/msc.o
 .text.msc_reset
                0x0000000000000000       0x1c build/CawthronKinetics/msc.o
 .text.udd_ep_set_halt
                0x0000000000000000       0x10 build/CawthronKinetics/msc.o
 .bss.mscReset  0x0000000000000000        0x1 build/CawthronKinetics/msc.o
 .text          0x0000000000000000        0x0 build/CawthronKinetics/sam_ba_monitor.o
 .data          0x0000000000000000        0x0 build/CawthronKinetics/sam_ba_monitor.o
 .bss           0x0000000000000000        0x0 build/CawthronKinetics/sam_ba_monitor.o
 .text.sam_ba_monitor_init
                0x0000000000000000        0x2 build/CawthronKinetics/sam_ba_monitor.o
 .text.sam_ba_putdata_term
                0x0000000000000000        0x8 build/CawthronKinetics/sam_ba_monitor.o
 .text          0x0000000000000000        0x0 build/CawthronKinetics/uart_driver.o
 .data          0x0000000000000000        0x0 build/CawthronKinetics/uart_driver.o
 .bss           0x0000000000000000        0x0 build/CawthronKinetics/uart_driver.o
 .text.uart_get_sercom_index
                0x0000000000000000       0x30 build/CawthronKinetics/uart_driver.o
 .text.uart_basic_init
                0x0000000000000000       0x5c build/CawthronKinetics/uart_driver.o
 .text.uart_disable
                0x0000000000000000       0x10 build/CawthronKinetics/uart_driver.o
 .text.uart_write_byte
                0x0000000000000000        0xc build/CawthronKinetics/uart_driver.o
 .text.uart_read_byte
                0x0000000000000000       0x28 build/CawthronKinetics/uart_driver.o
 .text.uart_write_buffer_polled
                0x0000000000000000       0x20 build/CawthronKinetics/uart_driver.o
 .text.uart_read_buffer_polled
                0x0000000000000000       0x3c build/CawthronKinetics/uart_driver.o
 .rodata        0x0000000000000000       0x18 build/CawthronKinetics/uart_driver.o
 .bss.uart_drv_error_flag
                0x0000000000000000        0x1 build/CawthronKinetics/uart_driver.o
 .debug_info    0x0000000000000000     0x206f build/CawthronKinetics/uart_driver.o
 .debug_abbrev  0x0000000000000000      0x209 build/CawthronKinetics/uart_driver.o
 .debug_loc     0x0000000000000000      0x1a1 build/CawthronKinetics/uart_driver.o
 .debug_aranges
                0x0000000000000000       0x50 build/CawthronKinetics/uart_driver.o
 .debug_ranges  0x0000000000000000       0x40 build/CawthronKinetics/uart_driver.o
 .debug_line    0x0000000000000000      0x498 build/CawthronKinetics/uart_driver.o
 .debug_str     0x0000000000000000      0x9fc build/CawthronKinetics/uart_driver.o
 .comment       0x0000000000000000       0x4a build/CawthronKinetics/uart_driver.o
 .debug_frame   0x0000000000000000       0xac build/CawthronKinetics/uart_driver.o
 .ARM.attributes
                0x0000000000000000       0x2c build/CawthronKinetics/uart_driver.o
 .text          0x0000000000000000        0x0 build/CawthronKinetics/hid.o
 .data          0x0000000000000000        0x0 build/CawthronKinetics/hid.o
 .bss           0x0000000000000000        0x0 build/CawthronKinetics/hid.o
 .data          0x0000000000000000        0x0 /usr/share/gcc-arm-none-eabi-10.3-2021.10/bin/../lib/gcc/arm-none-eabi/10.3.1/thumb/v6-m/nofp/libgcc.a(_thumb1_case_sqi.o)
 .bss           0x0000000000000000        0x0 /usr/share/gcc-arm-none-eabi-10.3-2021.10/bin/../lib/gcc/arm-none-eabi/10.3.1/thumb/v6-m/nofp/libgcc.a(_thumb1_case_sqi.o)
 .data          0x0000000000000000        0x0 /usr/share/gcc-arm-none-eabi-10.3-2021.10/bin/../lib/gcc/arm-none-eabi/10.3.1/thumb/v6-m/nofp/libgcc.a(_thumb1_case_uqi.o)
 .bss           0x0000000000000000        0x0 /usr/share/gcc-arm-none-eabi-10.3-2021.10/bin/../lib/gcc/arm-none-eabi/10.3.1/thumb/v6-m/nofp/libgcc.a(_thumb1_case_uqi.o)
 .text          0x0000000000000000        0x0 /usr/share/gcc-arm-none-eabi-10.3-2021.10/bin/../lib/gcc/arm-none-eabi/10.3.1/../../../../arm-none-eabi/lib/thumb/v6-m/nofp/libg_nano.a(lib_a-memcpy-stub.o)
 .data          0x0000000000000000        0x0 /usr/share/gcc-arm-none-eabi-10.3-2021.10/bin/../lib/gcc/arm-none-eabi/10.3.1/../../../../arm-none-eabi/lib/thumb/v6-m/nofp/libg_nano.a(lib_a-memcpy-stub.o)
 .bss           0x0000000000000000        0x0 /usr/share/gcc-arm-none-eabi-10.3-2021.10/bin/../lib/gcc/arm-none-eabi/10.3.1/../../../../arm-none-eabi/lib/thumb/v6-m/nofp/libg_nano.a(lib_a-memcpy-stub.o)
 .text          0x0000000000000000        0x0 /usr/share/gcc-arm-none-eabi-10.3-2021.10/bin/../lib/gcc/arm-none-eabi/10.3.1/../../../../arm-none-eabi/lib/thumb/v6-m/nofp/libg_nano.a(lib_a-memset.o)
 .data          0x0000000000000000        0x0 /usr/share/gcc-arm-none-eabi-10.3-2021.10/bin/../lib/gcc/arm-none-eabi/10.3.1/../../../../arm-none-eabi/lib/thumb/v6-m/nofp/libg_nano.a(lib_a-memset.o)
 .bss           0x0000000000000000        0x0 /usr/share/gcc-arm-none-eabi-10.3-2021.10/bin/../lib/gcc/arm-none-eabi/10.3.1/../../../../arm-none-eabi/lib/thumb/v6-m/nofp/libg_nano.a(lib_a-memset.o)
 .data          0x0000000000000000        0x0 /usr/share/gcc-arm-none-eabi-10.3-2021.10/bin/../lib/gcc/arm-none-eabi/10.3.1/../../../../arm-none-eabi/lib/thumb/v6-m/nofp/libg_nano.a(lib_a-strlen.o)
 .bss           0x0000000000000000        0x0 /usr/share/gcc-arm-none-eabi-10.3-2021.10/bin/../lib/gcc/arm-none-eabi/10.3.1/../../../../arm-none-eabi/lib/thumb/v6-m/nofp/libg_nano.a(lib_a-strlen.o)

Memory Configuration

Name             Origin             Length             Attributes
rom              0x0000000000000000 0x0000000000002000 xr
ram              0x0000000020000000 0x0000000000008000 xrw
*default*        0x0000000000000000 0xffffffffffffffff

Linker script and memory map

LOAD build/CawthronKinetics/flash_samd21.o
LOAD build/CawthronKinetics/init_samd21.o
LOAD build/CawthronKinetics/startup_samd21.o
LOAD build/CawthronKinetics/usart_sam_ba.o
LOAD build/CawthronKinetics/utils.o
LOAD build/CawthronKinetics/cdc_enumerate.o
LOAD build/CawthronKinetics/fat.o
LOAD build/CawthronKinetics/main.o
LOAD build/CawthronKinetics/msc.o
LOAD build/CawthronKinetics/sam_ba_monitor.o
LOAD build/CawthronKinetics/uart_driver.o
LOAD build/CawthronKinetics/hid.o
START GROUP
LOAD /usr/share/gcc-arm-none-eabi-10.3-2021.10/bin/../lib/gcc/arm-none-eabi/10.3.1/thumb/v6-m/nofp/libgcc.a
LOAD /usr/share/gcc-arm-none-eabi-10.3-2021.10/bin/../lib/gcc/arm-none-eabi/10.3.1/../../../../arm-none-eabi/lib/thumb/v6-m/nofp/libg_nano.a
LOAD /usr/share/gcc-arm-none-eabi-10.3-2021.10/bin/../lib/gcc/arm-none-eabi/10.3.1/../../../../arm-none-eabi/lib/thumb/v6-m/nofp/libc_nano.a
END GROUP
START GROUP
LOAD /usr/share/gcc-arm-none-eabi-10.3-2021.10/bin/../lib/gcc/arm-none-eabi/10.3.1/thumb/v6-m/nofp/libgcc.a
LOAD /usr/share/gcc-arm-none-eabi-10.3-2021.10/bin/../lib/gcc/arm-none-eabi/10.3.1/../../../../arm-none-eabi/lib/thumb/v6-m/nofp/libc_nano.a
LOAD /usr/share/gcc-arm-none-eabi-10.3-2021.10/bin/../lib/gcc/arm-none-eabi/10.3.1/../../../../arm-none-eabi/lib/thumb/v6-m/nofp/libnosys.a
END GROUP
START GROUP
LOAD /usr/share/gcc-arm-none-eabi-10.3-2021.10/bin/../lib/gcc/arm-none-eabi/10.3.1/thumb/v6-m/nofp/libgcc.a
LOAD /usr/share/gcc-arm-none-eabi-10.3-2021.10/bin/../lib/gcc/arm-none-eabi/10.3.1/../../../../arm-none-eabi/lib/thumb/v6-m/nofp/libc_nano.a
LOAD /usr/share/gcc-arm-none-eabi-10.3-2021.10/bin/../lib/gcc/arm-none-eabi/10.3.1/../../../../arm-none-eabi/lib/thumb/v6-m/nofp/libnosys.a
END GROUP
                0x0000000000002000                STACK_SIZE = DEFINED (STACK_SIZE)?STACK_SIZE:DEFINED (__stack_size__)?__stack_size__:0x2000

.text           0x0000000000000000     0x1ca0
                0x0000000000000000                . = ALIGN (0x4)
                0x0000000000000000                _sfixed = .
 *(.vectors .vectors.*)
 .vectors       0x0000000000000000       0xb4 build/CawthronKinetics/startup_samd21.o
                0x0000000000000000                exception_table
 *(.text .text.* .gnu.linkonce.t.*)
 .text.flash_erase_row
                0x00000000000000b4       0x28 build/CawthronKinetics/flash_samd21.o
                0x00000000000000b4                flash_erase_row
 .text.flash_erase_to_end
                0x00000000000000dc       0x1a build/CawthronKinetics/flash_samd21.o
                0x00000000000000dc                flash_erase_to_end
 .text.copy_words
                0x00000000000000f6       0x14 build/CawthronKinetics/flash_samd21.o
                0x00000000000000f6                copy_words
 *fill*         0x000000000000010a        0x2 
 .text.flash_write_words
                0x000000000000010c       0x54 build/CawthronKinetics/flash_samd21.o
                0x000000000000010c                flash_write_words
 .text.flash_write_row
                0x0000000000000160       0x2e build/CawthronKinetics/flash_samd21.o
                0x0000000000000160                flash_write_row
 *fill*         0x000000000000018e        0x2 
 .text.gclk_sync
                0x0000000000000190       0x10 build/CawthronKinetics/init_samd21.o
 .text.dfll_sync
                0x00000000000001a0       0x10 build/CawthronKinetics/init_samd21.o
 .text.system_init
                0x00000000000001b0       0xcc build/CawthronKinetics/init_samd21.o
                0x00000000000001b0                system_init
 .text.SysTick_Handler
                0x000000000000027c        0x8 build/CawthronKinetics/init_samd21.o
                0x000000000000027c                SysTick_Handler
 .text.Dummy_Handler
                0x0000000000000284        0x2 build/CawthronKinetics/startup_samd21.o
                0x0000000000000284                DMAC_Handler
                0x0000000000000284                AC_Handler
                0x0000000000000284                PendSV_Handler
                0x0000000000000284                NMI_Handler
                0x0000000000000284                SERCOM1_Handler
                0x0000000000000284                ADC_Handler
                0x0000000000000284                TCC1_Handler
                0x0000000000000284                SERCOM2_Handler
                0x0000000000000284                TCC0_Handler
                0x0000000000000284                RTC_Handler
                0x0000000000000284                EIC_Handler
                0x0000000000000284                WDT_Handler
                0x0000000000000284                TC4_Handler
                0x0000000000000284                USB_Handler
                0x0000000000000284                TC3_Handler
                0x0000000000000284                Dummy_Handler
                0x0000000000000284                PM_Handler
                0x0000000000000284                SERCOM5_Handler
                0x0000000000000284                SVC_Handler
                0x0000000000000284                TCC2_Handler
                0x0000000000000284                EVSYS_Handler
                0x0000000000000284                SERCOM3_Handler
                0x0000000000000284                SERCOM4_Handler
                0x0000000000000284                I2S_Handler
                0x0000000000000284                NVMCTRL_Handler
                0x0000000000000284                SERCOM0_Handler
                0x0000000000000284                DAC_Handler
                0x0000000000000284                PTC_Handler
                0x0000000000000284                TC5_Handler
                0x0000000000000284                SYSCTRL_Handler
 .text.HardFault_Handler
                0x0000000000000286        0x2 build/CawthronKinetics/startup_samd21.o
                0x0000000000000286                HardFault_Handler
 .text.Reset_Handler
                0x0000000000000288       0xc0 build/CawthronKinetics/startup_samd21.o
                0x0000000000000288                Reset_Handler
 .text.add_crc  0x0000000000000348       0x58 build/CawthronKinetics/usart_sam_ba.o
                0x0000000000000348                add_crc
 .text.delay    0x00000000000003a0       0x10 build/CawthronKinetics/utils.o
                0x00000000000003a0                delay
 .text.writeNum
                0x00000000000003b0       0x38 build/CawthronKinetics/utils.o
                0x00000000000003b0                writeNum
 .text.resetIntoApp
                0x00000000000003e8       0x28 build/CawthronKinetics/utils.o
                0x00000000000003e8                resetIntoApp
 .text.timerTick
                0x0000000000000410       0x40 build/CawthronKinetics/utils.o
                0x0000000000000410                timerTick
 .text.resetIntoBootloader
                0x0000000000000450       0x28 build/CawthronKinetics/utils.o
                0x0000000000000450                resetIntoBootloader
 .text.led_tick
                0x0000000000000478       0x80 build/CawthronKinetics/utils.o
                0x0000000000000478                led_tick
 .text.led_signal
                0x00000000000004f8       0x2c build/CawthronKinetics/utils.o
                0x00000000000004f8                led_signal
 .text.led_init
                0x0000000000000524       0x10 build/CawthronKinetics/utils.o
                0x0000000000000524                led_init
 .text.RGBLED_set_color
                0x0000000000000534        0x2 build/CawthronKinetics/utils.o
                0x0000000000000534                RGBLED_set_color
 *fill*         0x0000000000000536        0x2 
 .text.AT91F_InitUSB
                0x0000000000000538      0x108 build/CawthronKinetics/cdc_enumerate.o
                0x0000000000000538                AT91F_InitUSB
 .text.USB_ReadCore
                0x0000000000000640       0xe0 build/CawthronKinetics/cdc_enumerate.o
                0x0000000000000640                USB_ReadCore
 .text.USB_Read
                0x0000000000000720        0xa build/CawthronKinetics/cdc_enumerate.o
                0x0000000000000720                USB_Read
 .text.USB_ReadBlocking
                0x000000000000072a       0x22 build/CawthronKinetics/cdc_enumerate.o
                0x000000000000072a                USB_ReadBlocking
 .text.USB_WriteCore
                0x000000000000074c       0x94 build/CawthronKinetics/cdc_enumerate.o
                0x000000000000074c                USB_WriteCore
 .text.USB_Write
                0x00000000000007e0        0xa build/CawthronKinetics/cdc_enumerate.o
                0x00000000000007e0                USB_Write
 *fill*         0x00000000000007ea        0x2 
 .text.sendCtrl
                0x00000000000007ec       0x1c build/CawthronKinetics/cdc_enumerate.o
 .text.AT91F_USB_SendZlp
                0x0000000000000808       0x12 build/CawthronKinetics/cdc_enumerate.o
                0x0000000000000808                AT91F_USB_SendZlp
 *fill*         0x000000000000081a        0x2 
 .text.USB_Ok   0x000000000000081c      0x4d8 build/CawthronKinetics/cdc_enumerate.o
                0x000000000000081c                USB_Ok
 .text.usb_init
                0x0000000000000cf4       0x20 build/CawthronKinetics/cdc_enumerate.o
                0x0000000000000cf4                usb_init
 .text.cdc_write_buf
                0x0000000000000d14        0xe build/CawthronKinetics/cdc_enumerate.o
                0x0000000000000d14                cdc_write_buf
 .text.cdc_write_buf_xmd
                0x0000000000000d22        0xe build/CawthronKinetics/cdc_enumerate.o
                0x0000000000000d22                cdc_write_buf_xmd
 .text.cdc_read_buf
                0x0000000000000d30       0x1e build/CawthronKinetics/cdc_enumerate.o
                0x0000000000000d30                cdc_read_buf
 .text.cdc_read_buf_xmd
                0x0000000000000d4e       0x22 build/CawthronKinetics/cdc_enumerate.o
                0x0000000000000d4e                cdc_read_buf_xmd
 .text.padded_memcpy
                0x0000000000000d70       0x1e build/CawthronKinetics/fat.o
                0x0000000000000d70                padded_memcpy
 *fill*         0x0000000000000d8e        0x2 
 .text.read_block
                0x0000000000000d90      0x168 build/CawthronKinetics/fat.o
                0x0000000000000d90                read_block
 .text.write_block
                0x0000000000000ef8       0xe8 build/CawthronKinetics/fat.o
                0x0000000000000ef8                write_block
 .text.startup.main
                0x0000000000000fe0      0x124 build/CawthronKinetics/main.o
                0x0000000000000fe0                main
 .text.udi_msc_clear_sense
                0x0000000000001104       0x1c build/CawthronKinetics/msc.o
 .text.udi_msc_sense_pass
                0x0000000000001120       0x14 build/CawthronKinetics/msc.o
 .text.handover_flash
                0x0000000000001134       0x36 build/CawthronKinetics/msc.o
 .text.try_read_cbw
                0x000000000000116a       0x2c build/CawthronKinetics/msc.o
                0x000000000000116a                try_read_cbw
 *fill*         0x0000000000001196        0x2 
 .text.udi_msc_csw_send
                0x0000000000001198       0x14 build/CawthronKinetics/msc.o
                0x0000000000001198                udi_msc_csw_send
 .text.udi_msc_csw_process
                0x00000000000011ac       0x38 build/CawthronKinetics/msc.o
 .text.udi_msc_data_send
                0x00000000000011e4       0x68 build/CawthronKinetics/msc.o
 .text.udi_msc_spc_mode_sense
                0x000000000000124c       0x70 build/CawthronKinetics/msc.o
 .text.udi_msc_sbc_trans
                0x00000000000012bc       0xc4 build/CawthronKinetics/msc.o
 .text.process_msc
                0x0000000000001380      0x138 build/CawthronKinetics/msc.o
                0x0000000000001380                process_msc
 .text.handoverPrep
                0x00000000000014b8       0x24 build/CawthronKinetics/msc.o
                0x00000000000014b8                handoverPrep
 .text.handover
                0x00000000000014dc       0xd4 build/CawthronKinetics/msc.o
 .text.call_applet
                0x00000000000015b0       0x20 build/CawthronKinetics/sam_ba_monitor.o
                0x00000000000015b0                call_applet
 .text.put_uint32
                0x00000000000015d0       0x16 build/CawthronKinetics/sam_ba_monitor.o
                0x00000000000015d0                put_uint32
 *fill*         0x00000000000015e6        0x2 
 .text.sam_ba_monitor_run
                0x00000000000015e8      0x250 build/CawthronKinetics/sam_ba_monitor.o
                0x00000000000015e8                sam_ba_monitor_run
 .text.recv_hf2
                0x0000000000001838       0x5a build/CawthronKinetics/hid.o
                0x0000000000001838                recv_hf2
 .text.send_hf2
                0x0000000000001892       0x46 build/CawthronKinetics/hid.o
                0x0000000000001892                send_hf2
 .text.send_hf2_response
                0x00000000000018d8       0x14 build/CawthronKinetics/hid.o
                0x00000000000018d8                send_hf2_response
 .text.process_core
                0x00000000000018ec       0xfc build/CawthronKinetics/hid.o
                0x00000000000018ec                process_core
 .text.process_hid
                0x00000000000019e8       0x28 build/CawthronKinetics/hid.o
                0x00000000000019e8                process_hid
 .text.hidHandoverLoop
                0x0000000000001a10       0x24 build/CawthronKinetics/hid.o
                0x0000000000001a10                hidHandoverLoop
 .text          0x0000000000001a34       0x14 /usr/share/gcc-arm-none-eabi-10.3-2021.10/bin/../lib/gcc/arm-none-eabi/10.3.1/thumb/v6-m/nofp/libgcc.a(_thumb1_case_sqi.o)
                0x0000000000001a34                __gnu_thumb1_case_sqi
 .text          0x0000000000001a48       0x14 /usr/share/gcc-arm-none-eabi-10.3-2021.10/bin/../lib/gcc/arm-none-eabi/10.3.1/thumb/v6-m/nofp/libgcc.a(_thumb1_case_uqi.o)
                0x0000000000001a48                __gnu_thumb1_case_uqi
 .text.memcpy   0x0000000000001a5c       0x12 /usr/share/gcc-arm-none-eabi-10.3-2021.10/bin/../lib/gcc/arm-none-eabi/10.3.1/../../../../arm-none-eabi/lib/thumb/v6-m/nofp/libg_nano.a(lib_a-memcpy-stub.o)
                0x0000000000001a5c                memcpy
 .text.memset   0x0000000000001a6e       0x10 /usr/share/gcc-arm-none-eabi-10.3-2021.10/bin/../lib/gcc/arm-none-eabi/10.3.1/../../../../arm-none-eabi/lib/thumb/v6-m/nofp/libg_nano.a(lib_a-memset.o)
                0x0000000000001a6e                memset
 .text          0x0000000000001a7e        0xe /usr/share/gcc-arm-none-eabi-10.3-2021.10/bin/../lib/gcc/arm-none-eabi/10.3.1/../../../../arm-none-eabi/lib/thumb/v6-m/nofp/libg_nano.a(lib_a-strlen.o)
                0x0000000000001a7e                strlen
 *(.glue_7t)
 .glue_7t       0x0000000000001a8c        0x0 linker stubs
 *(.glue_7)
 .glue_7        0x0000000000001a8c        0x0 linker stubs
 *(.rodata .rodata* .gnu.linkonce.r.*)
 .rodata.str1.1
                0x0000000000001a8c       0x24 build/CawthronKinetics/cdc_enumerate.o
 .rodata        0x0000000000001ab0       0x10 build/CawthronKinetics/cdc_enumerate.o
 .rodata.devDescriptor
                0x0000000000001ac0       0x12 build/CawthronKinetics/cdc_enumerate.o
                0x0000000000001ac0                devDescriptor
 *fill*         0x0000000000001ad2        0x2 
 .rodata.hidDescriptor
                0x0000000000001ad4       0x21 build/CawthronKinetics/cdc_enumerate.o
                0x0000000000001ad4                hidDescriptor
 *fill*         0x0000000000001af5        0x3 
 .rodata.string_descriptors
                0x0000000000001af8       0x10 build/CawthronKinetics/cdc_enumerate.o
 .rodata.BootBlock
                0x0000000000001b08       0x3e build/CawthronKinetics/fat.o
 .rodata.indexFile
                0x0000000000001b46       0x6f build/CawthronKinetics/fat.o
                0x0000000000001b46                indexFile
 *fill*         0x0000000000001bb5        0x3 
 .rodata.info   0x0000000000001bb8       0x30 build/CawthronKinetics/fat.o
 .rodata.infoUf2File
                0x0000000000001be8       0x71 build/CawthronKinetics/fat.o
                0x0000000000001be8                infoUf2File
 .rodata.process_msc.str1.1
                0x0000000000001c59       0x12 build/CawthronKinetics/msc.o
 .rodata        0x0000000000001c59        0xc build/CawthronKinetics/msc.o
 .rodata.sam_ba_monitor_run.str1.1
                0x0000000000001c65       0x10 build/CawthronKinetics/sam_ba_monitor.o
 .rodata.fullVersion
                0x0000000000001c75       0x2a build/CawthronKinetics/sam_ba_monitor.o
 *(.ARM.extab* .gnu.linkonce.armextab.*)
                0x0000000000001ca0                . = ALIGN (0x4)
 *fill*         0x0000000000001c9f        0x1 
 *(.init)
                0x0000000000001ca0                . = ALIGN (0x4)
                0x0000000000001ca0                __preinit_array_start = .
 *(.preinit_array)
                0x0000000000001ca0                __preinit_array_end = .
                0x0000000000001ca0                . = ALIGN (0x4)
                0x0000000000001ca0                __init_array_start = .
 *(SORT_BY_NAME(.init_array.*))
 *(.init_array)
                0x0000000000001ca0                __init_array_end = .
                0x0000000000001ca0                . = ALIGN (0x4)
 *crtbegin.o(.ctors)
 *(EXCLUDE_FILE(*crtend.o) .ctors)
 *(SORT_BY_NAME(.ctors.*))
 *crtend.o(.ctors)
                0x0000000000001ca0                . = ALIGN (0x4)
                0x0000000000001ca0                _efixed = .
                [!provide]                        PROVIDE (__exidx_start = .)

.vfp11_veneer   0x0000000000001ca0        0x0
 .vfp11_veneer  0x0000000000001ca0        0x0 linker stubs

.v4_bx          0x0000000000001ca0        0x0
 .v4_bx         0x0000000000001ca0        0x0 linker stubs

.iplt           0x0000000000001ca0        0x0
 .iplt          0x0000000000001ca0        0x0 build/CawthronKinetics/flash_samd21.o

.igot.plt       0x0000000000001ca0        0x0
 .igot.plt      0x0000000000001ca0        0x0 build/CawthronKinetics/flash_samd21.o

.rel.dyn        0x0000000000001ca0        0x0
 .rel.iplt      0x0000000000001ca0        0x0 build/CawthronKinetics/flash_samd21.o

.ARM.exidx
 *(.ARM.exidx* .gnu.linkonce.armexidx.*)
                [!provide]                        PROVIDE (__exidx_end = .)
                0x0000000000001ca0                . = ALIGN (0x4)
                0x0000000000001ca0                _etext = .

.relocate       0x0000000020000000      0x1cc load address 0x0000000000001ca0
                0x0000000020000000                . = ALIGN (0x4)
                0x0000000020000000                _srelocate = .
 *(.ramfunc .ramfunc.*)
 *(.data .data.*)
 .data.led_tick_step
                0x0000000020000000        0x1 build/CawthronKinetics/utils.o
                0x0000000020000000                led_tick_step
 .data.limit    0x0000000020000001        0x1 build/CawthronKinetics/utils.o
 *fill*         0x0000000020000002        0x2 
 .data.bosDescriptor
                0x0000000020000004       0x39 build/CawthronKinetics/cdc_enumerate.o
 *fill*         0x000000002000003d        0x3 
 .data.cfgDescriptor
                0x0000000020000040       0x99 build/CawthronKinetics/cdc_enumerate.o
                0x0000000020000040                cfgDescriptor
 *fill*         0x00000000200000d9        0x3 
 .data.hidCfgDescriptor
                0x00000000200000dc        0x9 build/CawthronKinetics/cdc_enumerate.o
                0x00000000200000dc                hidCfgDescriptor
 *fill*         0x00000000200000e5        0x3 
 .data.line_coding
                0x00000000200000e8        0x8 build/CawthronKinetics/cdc_enumerate.o
 .data.msOS20Descriptor
                0x00000000200000f0       0xaa build/CawthronKinetics/cdc_enumerate.o
 .data.udi_msc_csw
                0x000000002000019a        0xd build/CawthronKinetics/msc.o
 *fill*         0x00000000200001a7        0x1 
 .data.udi_msc_inquiry_data.2
                0x00000000200001a8       0x24 build/CawthronKinetics/msc.o
                0x00000000200001cc                . = ALIGN (0x4)
                0x00000000200001cc                _erelocate = .

.bss            0x00000000200001cc      0xc08 load address 0x0000000000001e6c
                0x00000000200001cc                . = ALIGN (0x4)
                0x00000000200001cc                _sbss = .
                0x00000000200001cc                _szero = .
 *(.bss .bss.*)
 .bss.crcCache  0x00000000200001cc      0x200 build/CawthronKinetics/usart_sam_ba.o
 .bss.now       0x00000000200003cc        0x4 build/CawthronKinetics/utils.o
 .bss.resetHorizon
                0x00000000200003d0        0x4 build/CawthronKinetics/utils.o
                0x00000000200003d0                resetHorizon
 .bss.signal_end
                0x00000000200003d4        0x4 build/CawthronKinetics/utils.o
 .bss.timerHigh
                0x00000000200003d8        0x4 build/CawthronKinetics/utils.o
                0x00000000200003d8                timerHigh
 .bss.timerLow  0x00000000200003dc        0x4 build/CawthronKinetics/utils.o
 .bss.ctrlOutCache
                0x00000000200003e0       0x44 build/CawthronKinetics/cdc_enumerate.o
                0x00000000200003e0                ctrlOutCache
 .bss.currentConfiguration
                0x0000000020000424        0x1 build/CawthronKinetics/cdc_enumerate.o
 *fill*         0x0000000020000425        0x3 
 .bss.endpointCache
                0x0000000020000428      0x220 build/CawthronKinetics/cdc_enumerate.o
                0x0000000020000428                endpointCache
 .bss.serial_number
                0x0000000020000648       0x21 build/CawthronKinetics/cdc_enumerate.o
 *fill*         0x0000000020000669        0x3 
 .bss.usb_endpoint_table
                0x000000002000066c      0x100 build/CawthronKinetics/cdc_enumerate.o
                0x000000002000066c                usb_endpoint_table
 .bss.wLength   0x000000002000076c        0x2 build/CawthronKinetics/cdc_enumerate.o
 .bss.main_b_cdc_enable
                0x000000002000076e        0x1 build/CawthronKinetics/main.o
 *fill*         0x000000002000076f        0x1 
 .bss.block_buffer
                0x0000000020000770      0x200 build/CawthronKinetics/msc.o
 .bss.sense.1   0x0000000020000970       0x14 build/CawthronKinetics/msc.o
 .bss.udi_msc_capacity.0
                0x0000000020000984        0x8 build/CawthronKinetics/msc.o
 .bss.udi_msc_cbw
                0x000000002000098c       0x1f build/CawthronKinetics/msc.o
 .bss.udi_msc_sense
                0x00000000200009ab       0x12 build/CawthronKinetics/msc.o
 *fill*         0x00000000200009bd        0x3 
 .bss.usbWriteState
                0x00000000200009c0       0x98 build/CawthronKinetics/msc.o
 .bss.b_sam_ba_interface_usart
                0x0000000020000a58        0x1 build/CawthronKinetics/sam_ba_monitor.o
                0x0000000020000a58                b_sam_ba_interface_usart
 .bss.command   0x0000000020000a59        0x1 build/CawthronKinetics/sam_ba_monitor.o
                0x0000000020000a59                command
 *fill*         0x0000000020000a5a        0x2 
 .bss.current_number
                0x0000000020000a5c        0x4 build/CawthronKinetics/sam_ba_monitor.o
                0x0000000020000a5c                current_number
 .bss.data      0x0000000020000a60       0x41 build/CawthronKinetics/sam_ba_monitor.o
                0x0000000020000a60                data
 *fill*         0x0000000020000aa1        0x3 
 .bss.i         0x0000000020000aa4        0x4 build/CawthronKinetics/sam_ba_monitor.o
                0x0000000020000aa4                i
 .bss.j         0x0000000020000aa8        0x1 build/CawthronKinetics/sam_ba_monitor.o
                0x0000000020000aa8                j
 *fill*         0x0000000020000aa9        0x3 
 .bss.length    0x0000000020000aac        0x4 build/CawthronKinetics/sam_ba_monitor.o
                0x0000000020000aac                length
 .bss.ptr       0x0000000020000ab0        0x4 build/CawthronKinetics/sam_ba_monitor.o
                0x0000000020000ab0                ptr
 .bss.ptr_data  0x0000000020000ab4        0x4 build/CawthronKinetics/sam_ba_monitor.o
                0x0000000020000ab4                ptr_data
 .bss.sp        0x0000000020000ab8        0x4 build/CawthronKinetics/sam_ba_monitor.o
                0x0000000020000ab8                sp
 .bss.src_buff_addr.0
                0x0000000020000abc        0x4 build/CawthronKinetics/sam_ba_monitor.o
 .bss.u32tmp    0x0000000020000ac0        0x4 build/CawthronKinetics/sam_ba_monitor.o
                0x0000000020000ac0                u32tmp
 .bss.hidbufData
                0x0000000020000ac4      0x188 build/CawthronKinetics/hid.o
 .bss.webbufData
                0x0000000020000c4c      0x188 build/CawthronKinetics/hid.o
 *(COMMON)
                0x0000000020000dd4                . = ALIGN (0x4)
                0x0000000020000dd4                _ebss = .
                0x0000000020000dd4                _ezero = .

.stack          0x0000000020000dd4     0x2004 load address 0x0000000000002a74
                0x0000000020000dd8                . = ALIGN (0x8)
 *fill*         0x0000000020000dd4        0x4 
                0x0000000020000dd8                _sstack = .
                0x0000000020002dd8                . = (. + STACK_SIZE)
 *fill*         0x0000000020000dd8     0x2000 
                0x0000000020002dd8                . = ALIGN (0x8)
                0x0000000020002dd8                _estack = .
                0x0000000020002dd8                . = ALIGN (0x4)
                0x0000000020002dd8                _end = .
                0x0000000000001ff0                _binfo_start = 0x1ff0

.binfo          0x0000000000001ff0       0x10
 *(.binfo)
 .binfo         0x0000000000001ff0       0x10 build/CawthronKinetics/msc.o
                0x0000000000001ff0                binfo
OUTPUT(build/CawthronKinetics/bootloader-CawthronKinetics-v3.4.0-70-gb393cb1-dirty.elf elf32-littlearm)
LOAD linker stubs

.debug_info     0x0000000000000000    0x1421e
 .debug_info    0x0000000000000000      0x7ec build/CawthronKinetics/flash_samd21.o
 .debug_info    0x00000000000007ec     0x1cae build/CawthronKinetics/init_samd21.o
 .debug_info    0x000000000000249a     0x399b build/CawthronKinetics/startup_samd21.o
 .debug_info    0x0000000000005e35     0x38bc build/CawthronKinetics/usart_sam_ba.o
 .debug_info    0x00000000000096f1      0xac6 build/CawthronKinetics/utils.o
 .debug_info    0x000000000000a1b7     0x4058 build/CawthronKinetics/cdc_enumerate.o
 .debug_info    0x000000000000e20f      0x8a6 build/CawthronKinetics/fat.o
 .debug_info    0x000000000000eab5     0x1252 build/CawthronKinetics/main.o
 .debug_info    0x000000000000fd07     0x33c6 build/CawthronKinetics/msc.o
 .debug_info    0x00000000000130cd      0x64f build/CawthronKinetics/sam_ba_monitor.o
 .debug_info    0x000000000001371c      0xb02 build/CawthronKinetics/hid.o

.debug_abbrev   0x0000000000000000     0x231f
 .debug_abbrev  0x0000000000000000      0x201 build/CawthronKinetics/flash_samd21.o
 .debug_abbrev  0x0000000000000201      0x28f build/CawthronKinetics/init_samd21.o
 .debug_abbrev  0x0000000000000490      0x2b4 build/CawthronKinetics/startup_samd21.o
 .debug_abbrev  0x0000000000000744      0x41a build/CawthronKinetics/usart_sam_ba.o
 .debug_abbrev  0x0000000000000b5e      0x2f3 build/CawthronKinetics/utils.o
 .debug_abbrev  0x0000000000000e51      0x4a3 build/CawthronKinetics/cdc_enumerate.o
 .debug_abbrev  0x00000000000012f4      0x277 build/CawthronKinetics/fat.o
 .debug_abbrev  0x000000000000156b      0x2c7 build/CawthronKinetics/main.o
 .debug_abbrev  0x0000000000001832      0x51e build/CawthronKinetics/msc.o
 .debug_abbrev  0x0000000000001d50      0x29a build/CawthronKinetics/sam_ba_monitor.o
 .debug_abbrev  0x0000000000001fea      0x335 build/CawthronKinetics/hid.o

.debug_loc      0x0000000000000000     0x313c
 .debug_loc     0x0000000000000000      0x497 build/CawthronKinetics/flash_samd21.o
 .debug_loc     0x0000000000000497       0x6f build/CawthronKinetics/init_samd21.o
 .debug_loc     0x0000000000000506      0x9aa build/CawthronKinetics/usart_sam_ba.o
 .debug_loc     0x0000000000000eb0      0x199 build/CawthronKinetics/utils.o
 .debug_loc     0x0000000000001049      0xcfb build/CawthronKinetics/cdc_enumerate.o
 .debug_loc     0x0000000000001d44      0x51d build/CawthronKinetics/fat.o
 .debug_loc     0x0000000000002261       0x7a build/CawthronKinetics/main.o
 .debug_loc     0x00000000000022db      0x5bd build/CawthronKinetics/msc.o
 .debug_loc     0x0000000000002898      0x245 build/CawthronKinetics/sam_ba_monitor.o
 .debug_loc     0x0000000000002add      0x65f build/CawthronKinetics/hid.o

.debug_aranges  0x0000000000000000      0x398
 .debug_aranges
                0x0000000000000000       0x48 build/CawthronKinetics/flash_samd21.o
 .debug_aranges
                0x0000000000000048       0x38 build/CawthronKinetics/init_samd21.o
 .debug_aranges
                0x0000000000000080       0x30 build/CawthronKinetics/startup_samd21.o
 .debug_aranges
                0x00000000000000b0       0x88 build/CawthronKinetics/usart_sam_ba.o
 .debug_aranges
                0x0000000000000138       0x68 build/CawthronKinetics/utils.o
 .debug_aranges
                0x00000000000001a0       0x98 build/CawthronKinetics/cdc_enumerate.o
 .debug_aranges
                0x0000000000000238       0x30 build/CawthronKinetics/fat.o
 .debug_aranges
                0x0000000000000268       0x20 build/CawthronKinetics/main.o
 .debug_aranges
                0x0000000000000288       0x88 build/CawthronKinetics/msc.o
 .debug_aranges
                0x0000000000000310       0x40 build/CawthronKinetics/sam_ba_monitor.o
 .debug_aranges
                0x0000000000000350       0x48 build/CawthronKinetics/hid.o

.debug_ranges   0x0000000000000000      0x760
 .debug_ranges  0x0000000000000000       0xa8 build/CawthronKinetics/flash_samd21.o
 .debug_ranges  0x00000000000000a8       0x48 build/CawthronKinetics/init_samd21.o
 .debug_ranges  0x00000000000000f0       0x20 build/CawthronKinetics/startup_samd21.o
 .debug_ranges  0x0000000000000110       0x90 build/CawthronKinetics/usart_sam_ba.o
 .debug_ranges  0x00000000000001a0       0x90 build/CawthronKinetics/utils.o
 .debug_ranges  0x0000000000000230       0xd8 build/CawthronKinetics/cdc_enumerate.o
 .debug_ranges  0x0000000000000308      0x120 build/CawthronKinetics/fat.o
 .debug_ranges  0x0000000000000428       0x40 build/CawthronKinetics/main.o
 .debug_ranges  0x0000000000000468      0x190 build/CawthronKinetics/msc.o
 .debug_ranges  0x00000000000005f8       0xb0 build/CawthronKinetics/sam_ba_monitor.o
 .debug_ranges  0x00000000000006a8       0xb8 build/CawthronKinetics/hid.o

.debug_line     0x0000000000000000     0x40b1
 .debug_line    0x0000000000000000      0x433 build/CawthronKinetics/flash_samd21.o
 .debug_line    0x0000000000000433      0x368 build/CawthronKinetics/init_samd21.o
 .debug_line    0x000000000000079b      0x281 build/CawthronKinetics/startup_samd21.o
 .debug_line    0x0000000000000a1c      0x8fe build/CawthronKinetics/usart_sam_ba.o
 .debug_line    0x000000000000131a      0x499 build/CawthronKinetics/utils.o
 .debug_line    0x00000000000017b3      0xc9d build/CawthronKinetics/cdc_enumerate.o
 .debug_line    0x0000000000002450      0x56c build/CawthronKinetics/fat.o
 .debug_line    0x00000000000029bc      0x3c1 build/CawthronKinetics/main.o
 .debug_line    0x0000000000002d7d      0x96c build/CawthronKinetics/msc.o
 .debug_line    0x00000000000036e9      0x537 build/CawthronKinetics/sam_ba_monitor.o
 .debug_line    0x0000000000003c20      0x491 build/CawthronKinetics/hid.o

.debug_str      0x0000000000000000     0x3a48
 .debug_str     0x0000000000000000      0x33b build/CawthronKinetics/flash_samd21.o
                                        0x3df (size before relaxing)
 .debug_str     0x000000000000033b      0x6f4 build/CawthronKinetics/init_samd21.o
                                        0xa6f (size before relaxing)
 .debug_str     0x0000000000000a2f      0xeef build/CawthronKinetics/startup_samd21.o
                                       0x136a (size before relaxing)
 .debug_str     0x000000000000191e      0xc4e build/CawthronKinetics/usart_sam_ba.o
                                        0xfaa (size before relaxing)
 .debug_str     0x000000000000256c       0xda build/CawthronKinetics/utils.o
                                        0x461 (size before relaxing)
 .debug_str     0x0000000000002646      0x41c build/CawthronKinetics/cdc_enumerate.o
                                       0x1217 (size before relaxing)
 .debug_str     0x0000000000002a62      0x2b7 build/CawthronKinetics/fat.o
                                        0x4fd (size before relaxing)
 .debug_str     0x0000000000002d19       0x86 build/CawthronKinetics/main.o
                                        0x6e4 (size before relaxing)
 .debug_str     0x0000000000002d9f      0x9e1 build/CawthronKinetics/msc.o
                                       0x14aa (size before relaxing)
 .debug_str     0x0000000000003780       0xc9 build/CawthronKinetics/sam_ba_monitor.o
                                        0x39c (size before relaxing)
 .debug_str     0x0000000000003849      0x1ff build/CawthronKinetics/hid.o
                                        0x4d1 (size before relaxing)

.comment        0x0000000000000000       0x49
 .comment       0x0000000000000000       0x49 build/CawthronKinetics/flash_samd21.o
                                         0x4a (size before relaxing)
 .comment       0x0000000000000049       0x4a build/CawthronKinetics/init_samd21.o
 .comment       0x0000000000000049       0x4a build/CawthronKinetics/startup_samd21.o
 .comment       0x0000000000000049       0x4a build/CawthronKinetics/usart_sam_ba.o
 .comment       0x0000000000000049       0x4a build/CawthronKinetics/utils.o
 .comment       0x0000000000000049       0x4a build/CawthronKinetics/cdc_enumerate.o
 .comment       0x0000000000000049       0x4a build/CawthronKinetics/fat.o
 .comment       0x0000000000000049       0x4a build/CawthronKinetics/main.o
 .comment       0x0000000000000049       0x4a build/CawthronKinetics/msc.o
 .comment       0x0000000000000049       0x4a build/CawthronKinetics/sam_ba_monitor.o
 .comment       0x0000000000000049       0x4a build/CawthronKinetics/hid.o

.ARM.attributes
                0x0000000000000000       0x2a
 .ARM.attributes
                0x0000000000000000       0x2c build/CawthronKinetics/flash_samd21.o
 .ARM.attributes
                0x000000000000002c       0x2c build/CawthronKinetics/init_samd21.o
 .ARM.attributes
                0x0000000000000058       0x2c build/CawthronKinetics/startup_samd21.o
 .ARM.attributes
                0x0000000000000084       0x2c build/CawthronKinetics/usart_sam_ba.o
 .ARM.attributes
                0x00000000000000b0       0x2c build/CawthronKinetics/utils.o
 .ARM.attributes
                0x00000000000000dc       0x2c build/CawthronKinetics/cdc_enumerate.o
 .ARM.attributes
                0x0000000000000108       0x2c build/CawthronKinetics/fat.o
 .ARM.attributes
                0x0000000000000134       0x2c build/CawthronKinetics/main.o
 .ARM.attributes
                0x0000000000000160       0x2c build/CawthronKinetics/msc.o
 .ARM.attributes
                0x000000000000018c       0x2c build/CawthronKinetics/sam_ba_monitor.o
 .ARM.attributes
                0x00000000000001b8       0x2c build/CawthronKinetics/hid.o
 .ARM.attributes
                0x00000000000001e4       0x1e /usr/share/gcc-arm-none-eabi-10.3-2021.10/bin/../lib/gcc/arm-none-eabi/10.3.1/thumb/v6-m/nofp/libgcc.a(_thumb1_case_sqi.o)
 .ARM.attributes
                0x0000000000000202       0x1e /usr/share/gcc-arm-none-eabi-10.3-2021.10/bin/../lib/gcc/arm-none-eabi/10.3.1/thumb/v6-m/nofp/libgcc.a(_thumb1_case_uqi.o)
 .ARM.attributes
                0x0000000000000220       0x2c /usr/share/gcc-arm-none-eabi-10.3-2021.10/bin/../lib/gcc/arm-none-eabi/10.3.1/../../../../arm-none-eabi/lib/thumb/v6-m/nofp/libg_nano.a(lib_a-memcpy-stub.o)
 .ARM.attributes
                0x000000000000024c       0x2c /usr/share/gcc-arm-none-eabi-10.3-2021.10/bin/../lib/gcc/arm-none-eabi/10.3.1/../../../../arm-none-eabi/lib/thumb/v6-m/nofp/libg_nano.a(lib_a-memset.o)
 .ARM.attributes
                0x0000000000000278       0x1c /usr/share/gcc-arm-none-eabi-10.3-2021.10/bin/../lib/gcc/arm-none-eabi/10.3.1/../../../../arm-none-eabi/lib/thumb/v6-m/nofp/libg_nano.a(lib_a-strlen.o)

.debug_frame    0x0000000000000000      0x954
 .debug_frame   0x0000000000000000       0xb8 build/CawthronKinetics/flash_samd21.o
 .debug_frame   0x00000000000000b8       0x68 build/CawthronKinetics/init_samd21.o
 .debug_frame   0x0000000000000120       0x4c build/CawthronKinetics/startup_samd21.o
 .debug_frame   0x000000000000016c      0x188 build/CawthronKinetics/usart_sam_ba.o
 .debug_frame   0x00000000000002f4       0xcc build/CawthronKinetics/utils.o
 .debug_frame   0x00000000000003c0      0x1d0 build/CawthronKinetics/cdc_enumerate.o
 .debug_frame   0x0000000000000590       0x68 build/CawthronKinetics/fat.o
 .debug_frame   0x00000000000005f8       0x30 build/CawthronKinetics/main.o
 .debug_frame   0x0000000000000628      0x190 build/CawthronKinetics/msc.o
 .debug_frame   0x00000000000007b8       0x90 build/CawthronKinetics/sam_ba_monitor.o
 .debug_frame   0x0000000000000848       0xc4 build/CawthronKinetics/hid.o
 .debug_frame   0x000000000000090c       0x28 /usr/share/gcc-arm-none-eabi-10.3-2021.10/bin/../lib/gcc/arm-none-eabi/10.3.1/../../../../arm-none-eabi/lib/thumb/v6-m/nofp/libg_nano.a(lib_a-memcpy-stub.o)
 .debug_frame   0x0000000000000934       0x20 /usr/share/gcc-arm-none-eabi-10.3-2021.10/bin/../lib/gcc/arm-none-eabi/10.3.1/../../../../arm-none-eabi/lib/thumb/v6-m/nofp/libg_nano.a(lib_a-memset.o)

Cross Reference Table

Symbol                                            File
AC_Handler                                        build/CawthronKinetics/startup_samd21.o
ADC_Handler                                       build/CawthronKinetics/startup_samd21.o
AT91F_InitUSB                                     build/CawthronKinetics/cdc_enumerate.o
AT91F_USB_SendZlp                                 build/CawthronKinetics/cdc_enumerate.o
DAC_Handler                                       build/CawthronKinetics/startup_samd21.o
DMAC_Handler                                      build/CawthronKinetics/startup_samd21.o
Dummy_Handler                                     build/CawthronKinetics/startup_samd21.o
EIC_Handler                                       build/CawthronKinetics/startup_samd21.o
EVSYS_Handler                                     build/CawthronKinetics/startup_samd21.o
HardFault_Handler                                 build/CawthronKinetics/startup_samd21.o
I2S_Handler                                       build/CawthronKinetics/startup_samd21.o
NMI_Handler                                       build/CawthronKinetics/startup_samd21.o
NVMCTRL_Handler                                   build/CawthronKinetics/startup_samd21.o
PM_Handler                                        build/CawthronKinetics/startup_samd21.o
PTC_Handler                                       build/CawthronKinetics/startup_samd21.o
PendSV_Handler                                    build/CawthronKinetics/startup_samd21.o
RGBLED_set_color                                  build/CawthronKinetics/utils.o
                                                  build/CawthronKinetics/sam_ba_monitor.o
                                                  build/CawthronKinetics/main.o
RTC_Handler                                       build/CawthronKinetics/startup_samd21.o
Reset_Handler                                     build/CawthronKinetics/startup_samd21.o
SERCOM0_Handler                                   build/CawthronKinetics/startup_samd21.o
SERCOM1_Handler                                   build/CawthronKinetics/startup_samd21.o
SERCOM2_Handler                                   build/CawthronKinetics/startup_samd21.o
SERCOM3_Handler                                   build/CawthronKinetics/startup_samd21.o
SERCOM4_Handler                                   build/CawthronKinetics/startup_samd21.o
SERCOM5_Handler                                   build/CawthronKinetics/startup_samd21.o
SVC_Handler                                       build/CawthronKinetics/startup_samd21.o
SYSCTRL_Handler                                   build/CawthronKinetics/startup_samd21.o
SysTick_Handler                                   build/CawthronKinetics/init_samd21.o
TC3_Handler                                       build/CawthronKinetics/startup_samd21.o
TC4_Handler                                       build/CawthronKinetics/startup_samd21.o
TC5_Handler                                       build/CawthronKinetics/startup_samd21.o
TCC0_Handler                                      build/CawthronKinetics/startup_samd21.o
TCC1_Handler                                      build/CawthronKinetics/startup_samd21.o
TCC2_Handler                                      build/CawthronKinetics/startup_samd21.o
USB_Handler                                       build/CawthronKinetics/startup_samd21.o
USB_Ok                                            build/CawthronKinetics/cdc_enumerate.o
                                                  build/CawthronKinetics/msc.o
                                                  build/CawthronKinetics/main.o
USB_Read                                          build/CawthronKinetics/cdc_enumerate.o
USB_ReadBlocking                                  build/CawthronKinetics/cdc_enumerate.o
                                                  build/CawthronKinetics/msc.o
USB_ReadCore                                      build/CawthronKinetics/cdc_enumerate.o
                                                  build/CawthronKinetics/hid.o
                                                  build/CawthronKinetics/msc.o
USB_Write                                         build/CawthronKinetics/cdc_enumerate.o
                                                  build/CawthronKinetics/msc.o
USB_WriteCore                                     build/CawthronKinetics/cdc_enumerate.o
                                                  build/CawthronKinetics/hid.o
                                                  build/CawthronKinetics/msc.o
WDT_Handler                                       build/CawthronKinetics/startup_samd21.o
__gnu_thumb1_case_sqi                             /usr/share/gcc-arm-none-eabi-10.3-2021.10/bin/../lib/gcc/arm-none-eabi/10.3.1/thumb/v6-m/nofp/libgcc.a(_thumb1_case_sqi.o)
                                                  build/CawthronKinetics/msc.o
__gnu_thumb1_case_uqi                             /usr/share/gcc-arm-none-eabi-10.3-2021.10/bin/../lib/gcc/arm-none-eabi/10.3.1/thumb/v6-m/nofp/libgcc.a(_thumb1_case_uqi.o)
                                                  build/CawthronKinetics/hid.o
_erelocate                                        build/CawthronKinetics/startup_samd21.o
_estack                                           build/CawthronKinetics/startup_samd21.o
_etext                                            build/CawthronKinetics/startup_samd21.o
_ezero                                            build/CawthronKinetics/startup_samd21.o
_sfixed                                           build/CawthronKinetics/startup_samd21.o
_srelocate                                        build/CawthronKinetics/startup_samd21.o
_szero                                            build/CawthronKinetics/startup_samd21.o
add_crc                                           build/CawthronKinetics/usart_sam_ba.o
                                                  build/CawthronKinetics/hid.o
                                                  build/CawthronKinetics/sam_ba_monitor.o
b_sam_ba_interface_usart                          build/CawthronKinetics/sam_ba_monitor.o
b_sharp_received                                  build/CawthronKinetics/usart_sam_ba.o
binfo                                             build/CawthronKinetics/msc.o
buffer_rx_usart                                   build/CawthronKinetics/usart_sam_ba.o
buffer_tx_usart                                   build/CawthronKinetics/usart_sam_ba.o
call_applet                                       build/CawthronKinetics/sam_ba_monitor.o
cdc_is_rx_ready                                   build/CawthronKinetics/cdc_enumerate.o
cdc_read_buf                                      build/CawthronKinetics/cdc_enumerate.o
                                                  build/CawthronKinetics/sam_ba_monitor.o
cdc_read_buf_xmd                                  build/CawthronKinetics/cdc_enumerate.o
                                                  build/CawthronKinetics/sam_ba_monitor.o
cdc_write_buf                                     build/CawthronKinetics/cdc_enumerate.o
                                                  build/CawthronKinetics/sam_ba_monitor.o
cdc_write_buf_xmd                                 build/CawthronKinetics/cdc_enumerate.o
                                                  build/CawthronKinetics/sam_ba_monitor.o
cfgDescriptor                                     build/CawthronKinetics/cdc_enumerate.o
command                                           build/CawthronKinetics/sam_ba_monitor.o
copy_words                                        build/CawthronKinetics/flash_samd21.o
                                                  build/CawthronKinetics/hid.o
ctrlOutCache                                      build/CawthronKinetics/cdc_enumerate.o
current_number                                    build/CawthronKinetics/sam_ba_monitor.o
data                                              build/CawthronKinetics/sam_ba_monitor.o
delay                                             build/CawthronKinetics/utils.o
                                                  build/CawthronKinetics/main.o
devDescriptor                                     build/CawthronKinetics/cdc_enumerate.o
endpointCache                                     build/CawthronKinetics/cdc_enumerate.o
error_timeout                                     build/CawthronKinetics/usart_sam_ba.o
exception_table                                   build/CawthronKinetics/startup_samd21.o
flash_erase_row                                   build/CawthronKinetics/flash_samd21.o
flash_erase_to_end                                build/CawthronKinetics/flash_samd21.o
                                                  build/CawthronKinetics/sam_ba_monitor.o
flash_write                                       build/CawthronKinetics/flash_samd21.o
flash_write_row                                   build/CawthronKinetics/flash_samd21.o
                                                  build/CawthronKinetics/hid.o
                                                  build/CawthronKinetics/fat.o
flash_write_words                                 build/CawthronKinetics/flash_samd21.o
                                                  build/CawthronKinetics/sam_ba_monitor.o
g_interrupt_enabled                               build/CawthronKinetics/init_samd21.o
getPacket                                         build/CawthronKinetics/usart_sam_ba.o
handoverPrep                                      build/CawthronKinetics/msc.o
                                                  build/CawthronKinetics/hid.o
hidCfgDescriptor                                  build/CawthronKinetics/cdc_enumerate.o
hidDescriptor                                     build/CawthronKinetics/cdc_enumerate.o
hidHandoverLoop                                   build/CawthronKinetics/hid.o
                                                  build/CawthronKinetics/msc.o
i                                                 build/CawthronKinetics/sam_ba_monitor.o
idx_rx_read                                       build/CawthronKinetics/usart_sam_ba.o
idx_rx_write                                      build/CawthronKinetics/usart_sam_ba.o
idx_tx_read                                       build/CawthronKinetics/usart_sam_ba.o
idx_tx_write                                      build/CawthronKinetics/usart_sam_ba.o
indexFile                                         build/CawthronKinetics/fat.o
infoUf2File                                       build/CawthronKinetics/fat.o
                                                  build/CawthronKinetics/hid.o
                                                  build/CawthronKinetics/msc.o
j                                                 build/CawthronKinetics/sam_ba_monitor.o
led_init                                          build/CawthronKinetics/utils.o
                                                  build/CawthronKinetics/main.o
led_signal                                        build/CawthronKinetics/utils.o
                                                  build/CawthronKinetics/sam_ba_monitor.o
                                                  build/CawthronKinetics/msc.o
led_tick                                          build/CawthronKinetics/utils.o
                                                  build/CawthronKinetics/init_samd21.o
led_tick_step                                     build/CawthronKinetics/utils.o
                                                  build/CawthronKinetics/main.o
length                                            build/CawthronKinetics/sam_ba_monitor.o
main                                              build/CawthronKinetics/main.o
                                                  build/CawthronKinetics/startup_samd21.o
memcpy                                            /usr/share/gcc-arm-none-eabi-10.3-2021.10/bin/../lib/gcc/arm-none-eabi/10.3.1/../../../../arm-none-eabi/lib/thumb/v6-m/nofp/libg_nano.a(lib_a-memcpy-stub.o)
                                                  build/CawthronKinetics/hid.o
                                                  build/CawthronKinetics/sam_ba_monitor.o
                                                  build/CawthronKinetics/msc.o
                                                  build/CawthronKinetics/fat.o
                                                  build/CawthronKinetics/cdc_enumerate.o
                                                  build/CawthronKinetics/startup_samd21.o
memset                                            /usr/share/gcc-arm-none-eabi-10.3-2021.10/bin/../lib/gcc/arm-none-eabi/10.3.1/../../../../arm-none-eabi/lib/thumb/v6-m/nofp/libg_nano.a(lib_a-memset.o)
                                                  build/CawthronKinetics/hid.o
                                                  build/CawthronKinetics/msc.o
                                                  build/CawthronKinetics/fat.o
                                                  build/CawthronKinetics/cdc_enumerate.o
                                                  build/CawthronKinetics/startup_samd21.o
mode_of_transfer                                  build/CawthronKinetics/usart_sam_ba.o
mscReset                                          build/CawthronKinetics/msc.o
msc_reset                                         build/CawthronKinetics/msc.o
padded_memcpy                                     build/CawthronKinetics/fat.o
                                                  build/CawthronKinetics/msc.o
panic                                             build/CawthronKinetics/utils.o
process_core                                      build/CawthronKinetics/hid.o
process_hid                                       build/CawthronKinetics/hid.o
                                                  build/CawthronKinetics/msc.o
process_msc                                       build/CawthronKinetics/msc.o
                                                  build/CawthronKinetics/sam_ba_monitor.o
ptr                                               build/CawthronKinetics/sam_ba_monitor.o
ptr_data                                          build/CawthronKinetics/sam_ba_monitor.o
put_uint32                                        build/CawthronKinetics/sam_ba_monitor.o
read_block                                        build/CawthronKinetics/fat.o
                                                  build/CawthronKinetics/msc.o
recv_hf2                                          build/CawthronKinetics/hid.o
resetHorizon                                      build/CawthronKinetics/utils.o
                                                  build/CawthronKinetics/main.o
                                                  build/CawthronKinetics/fat.o
resetIntoApp                                      build/CawthronKinetics/utils.o
                                                  build/CawthronKinetics/hid.o
                                                  build/CawthronKinetics/msc.o
resetIntoBootloader                               build/CawthronKinetics/utils.o
                                                  build/CawthronKinetics/hid.o
                                                  build/CawthronKinetics/msc.o
reset_ep                                          build/CawthronKinetics/cdc_enumerate.o
                                                  build/CawthronKinetics/msc.o
sam_ba_monitor_init                               build/CawthronKinetics/sam_ba_monitor.o
sam_ba_monitor_run                                build/CawthronKinetics/sam_ba_monitor.o
                                                  build/CawthronKinetics/main.o
sam_ba_putdata_term                               build/CawthronKinetics/sam_ba_monitor.o
send_hf2                                          build/CawthronKinetics/hid.o
send_hf2_response                                 build/CawthronKinetics/hid.o
size_of_data                                      build/CawthronKinetics/usart_sam_ba.o
sp                                                build/CawthronKinetics/sam_ba_monitor.o
stall_ep                                          build/CawthronKinetics/cdc_enumerate.o
                                                  build/CawthronKinetics/msc.o
strlen                                            /usr/share/gcc-arm-none-eabi-10.3-2021.10/bin/../lib/gcc/arm-none-eabi/10.3.1/../../../../arm-none-eabi/lib/thumb/v6-m/nofp/libg_nano.a(lib_a-strlen.o)
                                                  build/CawthronKinetics/hid.o
                                                  build/CawthronKinetics/fat.o
                                                  build/CawthronKinetics/cdc_enumerate.o
system_init                                       build/CawthronKinetics/init_samd21.o
                                                  build/CawthronKinetics/main.o
timerHigh                                         build/CawthronKinetics/utils.o
                                                  build/CawthronKinetics/main.o
                                                  build/CawthronKinetics/fat.o
timerTick                                         build/CawthronKinetics/utils.o
                                                  build/CawthronKinetics/cdc_enumerate.o
try_read_cbw                                      build/CawthronKinetics/msc.o
u32tmp                                            build/CawthronKinetics/sam_ba_monitor.o
uart_basic_init                                   build/CawthronKinetics/uart_driver.o
                                                  build/CawthronKinetics/usart_sam_ba.o
uart_disable                                      build/CawthronKinetics/uart_driver.o
                                                  build/CawthronKinetics/usart_sam_ba.o
uart_drv_error_flag                               build/CawthronKinetics/uart_driver.o
uart_get_sercom_index                             build/CawthronKinetics/uart_driver.o
                                                  build/CawthronKinetics/usart_sam_ba.o
uart_read_buffer_polled                           build/CawthronKinetics/uart_driver.o
uart_read_byte                                    build/CawthronKinetics/uart_driver.o
                                                  build/CawthronKinetics/usart_sam_ba.o
uart_write_buffer_polled                          build/CawthronKinetics/uart_driver.o
uart_write_byte                                   build/CawthronKinetics/uart_driver.o
                                                  build/CawthronKinetics/usart_sam_ba.o
udd_ep_set_halt                                   build/CawthronKinetics/msc.o
udi_msc_csw_send                                  build/CawthronKinetics/msc.o
usart_close                                       build/CawthronKinetics/usart_sam_ba.o
usart_getc                                        build/CawthronKinetics/usart_sam_ba.o
usart_getdata                                     build/CawthronKinetics/usart_sam_ba.o
usart_getdata_xmd                                 build/CawthronKinetics/usart_sam_ba.o
usart_is_rx_ready                                 build/CawthronKinetics/usart_sam_ba.o
usart_open                                        build/CawthronKinetics/usart_sam_ba.o
usart_putc                                        build/CawthronKinetics/usart_sam_ba.o
usart_putdata                                     build/CawthronKinetics/usart_sam_ba.o
usart_putdata_xmd                                 build/CawthronKinetics/usart_sam_ba.o
usart_readc                                       build/CawthronKinetics/usart_sam_ba.o
usart_sharp_received                              build/CawthronKinetics/usart_sam_ba.o
usb_endpoint_table                                build/CawthronKinetics/cdc_enumerate.o
usb_init                                          build/CawthronKinetics/cdc_enumerate.o
                                                  build/CawthronKinetics/main.o
writeNum                                          build/CawthronKinetics/utils.o
                                                  build/CawthronKinetics/sam_ba_monitor.o
                                                  build/CawthronKinetics/cdc_enumerate.o
write_block                                       build/CawthronKinetics/fat.o
                                                  build/CawthronKinetics/msc.o
